; Function Attrs: mustprogress nounwind uwtable
define internal fastcc void @_ZL28fixELFSymbolsInTLSFixupsImplPKN4llvm6MCExprERNS_11MCAssemblerE(ptr nocapture noundef readonly %0) unnamed_addr #0 {
  br label %tailrecurse

tailrecurse:                                      ; preds = %tailrecurse.backedge, %1
  %.tr = phi ptr [ %0, %1 ], [ %.tr.be, %tailrecurse.backedge ]
  %2 = load i8, ptr %.tr, align 8
  switch i8 %2, label %.loopexit [
    i8 3, label %tailrecurse.backedge
    i8 2, label %7
    i8 0, label %3
  ]

3:                                                ; preds = %tailrecurse
  %4 = getelementptr inbounds nuw i8, ptr %.tr, i64 16
  %5 = load ptr, ptr %4, align 8
  tail call fastcc void @_ZL28fixELFSymbolsInTLSFixupsImplPKN4llvm6MCExprERNS_11MCAssemblerE(ptr noundef %5)
  br label %tailrecurse.backedge

tailrecurse.backedge:                             ; preds = %tailrecurse, %3
  %.sink = phi i64 [ 24, %3 ], [ 16, %tailrecurse ]
  %6 = getelementptr inbounds nuw i8, ptr %.tr, i64 %.sink
  %.tr.be = load ptr, ptr %6, align 8
  br label %tailrecurse

7:                                                ; preds = %tailrecurse
  %8 = getelementptr inbounds nuw i8, ptr %.tr, i64 16
  %9 = load ptr, ptr %8, align 8
  tail call void @_ZNK4llvm11MCSymbolELF7setTypeEj(ptr noundef nonnull align 8 dereferenceable(40) %9, i32 noundef 6) #8
  br label %.loopexit

.loopexit:                                        ; preds = %tailrecurse, %7
  ret void
}